; Function Attrs: nounwind uwtable
define hidden void @SDL_InsertGPUDebugLabel_REAL(ptr noundef %0, ptr noundef %1) local_unnamed_addr #0 {
  %3 = icmp eq ptr %0, null
  br i1 %3, label %4, label %6

4:                                                ; preds = %2
  %5 = tail call zeroext i1 (ptr, ...) @SDL_SetError_REAL(ptr noundef nonnull @.str.4, ptr noundef nonnull @.str.179) #7
  br label %.thread

6:                                                ; preds = %2
  %7 = icmp eq ptr %1, null
  br i1 %7, label %8, label %10

8:                                                ; preds = %6
  %9 = tail call zeroext i1 (ptr, ...) @SDL_SetError_REAL(ptr noundef nonnull @.str.4, ptr noundef nonnull @.str.177) #7
  br label %.thread

10:                                               ; preds = %6
  %11 = load ptr, ptr %0, align 8
  %12 = getelementptr inbounds nuw i8, ptr %11, i64 684
  %13 = load i8, ptr %12, align 4, !range !5, !noundef !6
  %14 = trunc nuw i8 %13 to i1
  br i1 %14, label %15, label %21

15:                                               ; preds = %10
  %16 = getelementptr inbounds nuw i8, ptr %0, i64 121
  %17 = load i8, ptr %16, align 1, !range !5, !noundef !6
  %18 = trunc nuw i8 %17 to i1
  br i1 %18, label %.preheader, label %21

.preheader:                                       ; preds = %15, %.preheader
  %19 = tail call i32 @SDL_ReportAssertion_REAL(ptr noundef nonnull @SDL_InsertGPUDebugLabel_REAL.sdl_assert_data, ptr noundef nonnull @__func__.SDL_InsertGPUDebugLabel_REAL, ptr noundef nonnull @.str.8, i32 noundef 1319) #7
  switch i32 %19, label %.thread [
    i32 0, label %.preheader
    i32 1, label %20
  ]

20:                                               ; preds = %.preheader
  tail call void @llvm.debugtrap()
  br label %.thread

21:                                               ; preds = %15, %10
  %22 = getelementptr inbounds nuw i8, ptr %11, i64 88
  %23 = load ptr, ptr %22, align 8
  tail call void %23(ptr noundef nonnull %0, ptr noundef nonnull %1) #7
  br label %.thread

.thread:                                          ; preds = %.preheader, %20, %21, %8, %4
  ret void
}